(lp0
(imedia
Movie
p1
(dp2
S'_actors'
p3
(lp4
sS'title'
p5
S'Kung Fu Panda'
p6
sS'release_date'
p7
S'2008'
p8
sS'poster_image_url'
p9
S'http://ia.media-imdb.com/images/M/MV5BMTIxOTY1NjUyN15BMl5BanBnXkFtZTcwMjMxMDk1MQ@@._V1_SX214_AL_.jpg'
p10
sS'_rating'
p11
S''
p12
sS'_release_date'
p13
g12
sS'storyline'
p14
S"The Dragon Warrior has to clash against the savage Tai Lung as China's fate hangs in the balance: However, the Dragon Warrior mantle is supposedly mistaken to be bestowed upon an obese panda who is a tyro in martial arts."
p15
sS'_poster_image_url'
p16
g12
sS'_trailer_youtube_url'
p17
g12
sS'actors'
p18
(lp19
sS'_title'
p20
g12
sS'trailer_youtube_url'
p21
S'https://www.youtube.com/watch?v=PXi3Mv6KMzY'
p22
sba(imedia
Movie
p23
(dp24
g3
(lp25
sg5
g6
sg7
g8
sg9
g10
sg11
g12
sg13
g12
sg14
g15
sg16
g12
sg17
g12
sg18
(lp26
sg20
g12
sg21
g22
sba(imedia
Movie
p27
(dp28
g3
(lp29
sg5
g6
sg7
g8
sg9
g10
sg11
g12
sg13
g12
sg14
g15
sg16
g12
sg17
g12
sg18
(lp30
sg20
g12
sg21
g22
sba(imedia
Movie
p31
(dp32
g3
(lp33
sg5
g6
sg7
g8
sg9
g10
sg11
g12
sg13
g12
sg14
g15
sg16
g12
sg17
g12
sg18
(lp34
sg20
g12
sg21
g22
sba(imedia
Movie
p35
(dp36
g3
(lp37
sg5
g6
sg7
g8
sg9
g10
sg11
g12
sg13
g12
sg14
g15
sg16
g12
sg17
g12
sg18
(lp38
sg20
g12
sg21
g22
sba.