(lp0
(imovie
Movie
p1
(dp2
S'_actors'
p3
(lp4
sS'title'
p5
S'Kung Fu Panda'
p6
sS'release_date'
p7
S'2008'
p8
sS'poster_image_url'
p9
S'http://ia.media-imdb.com/images/M/MV5BMTIxOTY1NjUyN15BMl5BanBnXkFtZTcwMjMxMDk1MQ@@._V1_SX214_AL_.jpg'
p10
sS'_release_date'
p11
S''
p12
sS'actors'
p13
(lp14
sS'_poster_image_url'
p15
g12
sS'_trailer_youtube_url'
p16
g12
sS'_title'
p17
g12
sS'trailer_youtube_url'
p18
S'https://www.youtube.com/watch?v=PXi3Mv6KMzY'
p19
sba(imovie
Movie
p20
(dp21
g3
(lp22
sg5
g6
sg7
g8
sg9
g10
sg11
g12
sg13
(lp23
sg15
g12
sg16
g12
sg17
g12
sg18
g19
sba(imovie
Movie
p24
(dp25
g3
(lp26
sg5
g6
sg7
g8
sg9
g10
sg11
g12
sg13
(lp27
sg15
g12
sg16
g12
sg17
g12
sg18
g19
sba(imovie
Movie
p28
(dp29
g3
(lp30
sg5
g6
sg7
g8
sg9
g10
sg11
g12
sg13
(lp31
sg15
g12
sg16
g12
sg17
g12
sg18
g19
sba(imovie
Movie
p32
(dp33
g3
(lp34
sg5
g6
sg7
g8
sg9
g10
sg11
g12
sg13
(lp35
sg15
g12
sg16
g12
sg17
g12
sg18
g19
sba.